; Function Attrs: nounwind uwtable
define ptr @l_Lean_getInitFnNameForCore_x3f(ptr noundef %0, ptr noundef %1, ptr noundef %2) local_unnamed_addr #0 {
  %4 = load ptr, ptr @l_Lean_instInhabitedName, align 8, !tbaa !4
  %5 = tail call ptr @l_Lean_ParametricAttribute_getParam_x3f___rarg(ptr noundef %4, ptr noundef %1, ptr noundef %0, ptr noundef %2) #5
  %6 = ptrtoint ptr %5 to i64
  %7 = and i64 %6, 1
  %.not.i21 = icmp eq i64 %7, 0
  br i1 %.not.i21, label %11, label %8

8:                                                ; preds = %3
  %9 = lshr i64 %6, 1
  %10 = trunc i64 %9 to i32
  br label %lean_obj_tag.exit

11:                                               ; preds = %3
  %12 = getelementptr i8, ptr %5, i64 4
  %.val.i = load i32, ptr %12, align 4
  %13 = lshr i32 %.val.i, 24
  br label %lean_obj_tag.exit

lean_obj_tag.exit:                                ; preds = %8, %11
  %.0.i = phi i32 [ %10, %8 ], [ %13, %11 ]
  %14 = icmp eq i32 %.0.i, 0
  br i1 %14, label %57, label %15

15:                                               ; preds = %lean_obj_tag.exit
  %.val = load i32, ptr %5, align 4, !tbaa !10
  %16 = icmp eq i32 %.val, 1
  %17 = getelementptr inbounds nuw i8, ptr %5, i64 8
  %18 = load ptr, ptr %17, align 8, !tbaa !4
  %19 = ptrtoint ptr %18 to i64
  %20 = and i64 %19, 1
  %.not.i22 = icmp eq i64 %20, 0
  br i1 %16, label %21, label %30

21:                                               ; preds = %15
  br i1 %.not.i22, label %25, label %22

22:                                               ; preds = %21
  %23 = lshr i64 %19, 1
  %24 = trunc i64 %23 to i32
  br label %lean_obj_tag.exit25

25:                                               ; preds = %21
  %26 = getelementptr i8, ptr %18, i64 4
  %.val.i24 = load i32, ptr %26, align 4
  %27 = lshr i32 %.val.i24, 24
  br label %lean_obj_tag.exit25

lean_obj_tag.exit25:                              ; preds = %22, %25
  %.0.i23 = phi i32 [ %24, %22 ], [ %27, %25 ]
  %28 = icmp eq i32 %.0.i23, 0
  br i1 %28, label %29, label %57

29:                                               ; preds = %lean_obj_tag.exit25
  tail call void @lean_free_object(ptr noundef nonnull %5) #5
  br label %57

30:                                               ; preds = %15
  br i1 %.not.i22, label %31, label %lean_inc.exit

31:                                               ; preds = %30
  %.val.i26 = load i32, ptr %18, align 4, !tbaa !10
  %32 = icmp sgt i32 %.val.i26, 0
  br i1 %32, label %33, label %35, !prof !13

33:                                               ; preds = %31
  %34 = add nuw i32 %.val.i26, 1
  store i32 %34, ptr %18, align 4, !tbaa !10
  br label %lean_inc.exit

35:                                               ; preds = %31
  %.not.i27 = icmp eq i32 %.val.i26, 0
  br i1 %.not.i27, label %lean_inc.exit, label %36

36:                                               ; preds = %35
  tail call void @lean_inc_ref_cold(ptr noundef nonnull %18) #5
  br label %lean_inc.exit

lean_inc.exit:                                    ; preds = %36, %35, %33, %30
  br i1 %.not.i21, label %37, label %lean_dec.exit

37:                                               ; preds = %lean_inc.exit
  %38 = load i32, ptr %5, align 4, !tbaa !10
  %39 = icmp sgt i32 %38, 1
  br i1 %39, label %40, label %42, !prof !13

40:                                               ; preds = %37
  %41 = add nsw i32 %38, -1
  store i32 %41, ptr %5, align 4, !tbaa !10
  br label %lean_dec.exit

42:                                               ; preds = %37
  %.not.i = icmp eq i32 %38, 0
  br i1 %.not.i, label %lean_dec.exit, label %43

43:                                               ; preds = %42
  tail call void @lean_dec_ref_cold(ptr noundef nonnull %5) #5
  br label %lean_dec.exit

lean_dec.exit:                                    ; preds = %43, %42, %40, %lean_inc.exit
  br i1 %.not.i22, label %47, label %44

44:                                               ; preds = %lean_dec.exit
  %45 = lshr i64 %19, 1
  %46 = trunc i64 %45 to i32
  br label %lean_obj_tag.exit31

47:                                               ; preds = %lean_dec.exit
  %48 = getelementptr i8, ptr %18, i64 4
  %.val.i30 = load i32, ptr %48, align 4
  %49 = lshr i32 %.val.i30, 24
  br label %lean_obj_tag.exit31

lean_obj_tag.exit31:                              ; preds = %44, %47
  %.0.i29 = phi i32 [ %46, %44 ], [ %49, %47 ]
  %50 = icmp eq i32 %.0.i29, 0
  br i1 %50, label %57, label %51

51:                                               ; preds = %lean_obj_tag.exit31
  tail call void @lean_inc_heartbeat() #5
  %52 = tail call noalias ptr @mi_malloc_small(i64 noundef 16) #5
  %53 = icmp eq ptr %52, null
  br i1 %53, label %54, label %lean_alloc_ctor.exit

54:                                               ; preds = %51
  tail call void @lean_internal_panic_out_of_memory() #6
  unreachable

lean_alloc_ctor.exit:                             ; preds = %51
  %55 = getelementptr inbounds nuw i8, ptr %52, i64 4
  store i32 1, ptr %52, align 4, !tbaa !10
  store i32 16842768, ptr %55, align 4
  %56 = getelementptr inbounds nuw i8, ptr %52, i64 8
  store ptr %18, ptr %56, align 8, !tbaa !4
  br label %57

57:                                               ; preds = %lean_obj_tag.exit31, %lean_obj_tag.exit, %lean_obj_tag.exit25, %29, %lean_alloc_ctor.exit
  %.0 = phi ptr [ inttoptr (i64 1 to ptr), %29 ], [ %5, %lean_obj_tag.exit25 ], [ %52, %lean_alloc_ctor.exit ], [ inttoptr (i64 1 to ptr), %lean_obj_tag.exit ], [ inttoptr (i64 1 to ptr), %lean_obj_tag.exit31 ]
  ret ptr %.0
}